target datalayout = "e-m:e-p270:32:32-p271:32:32-p272:64:64-i64:64-i128:128-f80:128-n8:16:32:64-S128"
target triple = "x86_64-unknown-linux-gnu"

%class.pdecl.base = type <{ ptr, i32, i32, i32 }>
%class.psort_decl = type { %class.pdecl.base, %class.symbol, i32, ptr }
%class.symbol = type { ptr }

; Function Attrs: mustprogress uwtable
define hidden noundef ptr @_ZN10psort_decl4findEPKP4sort(ptr noundef nonnull align 8 dereferenceable(48) %this, ptr noundef %s) #4 align 2 {
entry:
  %retval = alloca ptr, align 8
  %this.addr = alloca ptr, align 8
  %s.addr = alloca ptr, align 8
  store ptr %this, ptr %this.addr, align 8
  store ptr %s, ptr %s.addr, align 8
  %this1 = load ptr, ptr %this.addr, align 8
  %m_inst_cache = getelementptr inbounds %class.psort_decl, ptr %this1, i32 0, i32 3
  %0 = load ptr, ptr %m_inst_cache, align 8
  %tobool = icmp ne ptr %0, null
  br i1 %tobool, label %if.end, label %if.then

if.then:                                          ; preds = %entry
  store ptr null, ptr %retval, align 8
  br label %return

if.end:                                           ; preds = %entry
  %m_inst_cache2 = getelementptr inbounds %class.psort_decl, ptr %this1, i32 0, i32 3
  %1 = load ptr, ptr %m_inst_cache2, align 8
  %2 = load ptr, ptr %s.addr, align 8
  %call = call noundef ptr @_ZNK16psort_inst_cache4findEPKP4sort(ptr noundef nonnull align 8 dereferenceable(40) %1, ptr noundef %2)
  store ptr %call, ptr %retval, align 8
  br label %return

return:                                           ; preds = %if.end, %if.then
  %3 = load ptr, ptr %retval, align 8
  ret ptr %3
}